target datalayout = "e-m:e-p270:32:32-p271:32:32-p272:64:64-i64:64-i128:128-f80:128-n8:16:32:64-S128"
target triple = "x86_64-pc-linux-gnu"

%struct.ZSTD_customMem = type { ptr, ptr, ptr }
%union.pthread_mutex_t = type { %struct.__pthread_mutex_s }
%struct.__pthread_mutex_s = type { i32, i32, i32, i32, i32, i16, i16, %struct.__pthread_internal_list }
%struct.__pthread_internal_list = type { ptr, ptr }
%struct.ZSTDMT_CCtxPool = type { %union.pthread_mutex_t, i32, i32, %struct.ZSTD_customMem, ptr }

; Function Attrs: inlinehint nounwind uwtable
define internal void @ZSTD_customFree(ptr noundef %0, ptr noundef byval(%struct.ZSTD_customMem) align 8 %1) #1 {
  %3 = alloca ptr, align 8
  store ptr %0, ptr %3, align 8, !tbaa !16
  %4 = load ptr, ptr %3, align 8, !tbaa !16
  %5 = icmp ne ptr %4, null
  br i1 %5, label %6, label %19

6:                                                ; preds = %2
  %7 = getelementptr inbounds nuw %struct.ZSTD_customMem, ptr %1, i32 0, i32 1
  %8 = load ptr, ptr %7, align 8, !tbaa !12
  %9 = icmp ne ptr %8, null
  br i1 %9, label %10, label %16

10:                                               ; preds = %6
  %11 = getelementptr inbounds nuw %struct.ZSTD_customMem, ptr %1, i32 0, i32 1
  %12 = load ptr, ptr %11, align 8, !tbaa !12
  %13 = getelementptr inbounds nuw %struct.ZSTD_customMem, ptr %1, i32 0, i32 2
  %14 = load ptr, ptr %13, align 8, !tbaa !72
  %15 = load ptr, ptr %3, align 8, !tbaa !16
  call void %12(ptr noundef %14, ptr noundef %15)
  br label %18

16:                                               ; preds = %6
  %17 = load ptr, ptr %3, align 8, !tbaa !16
  call void @free(ptr noundef %17) #11
  br label %18

18:                                               ; preds = %16, %10
  br label %19

19:                                               ; preds = %18, %2
  ret void
}

; Function Attrs: inlinehint nounwind uwtable
define internal ptr @ZSTD_customCalloc(i64 noundef %0, ptr noundef byval(%struct.ZSTD_customMem) align 8 %1) #1 {
  %3 = alloca ptr, align 8
  %4 = alloca i64, align 8
  %5 = alloca ptr, align 8
  store i64 %0, ptr %4, align 8, !tbaa !45
  %6 = getelementptr inbounds nuw %struct.ZSTD_customMem, ptr %1, i32 0, i32 0
  %7 = load ptr, ptr %6, align 8, !tbaa !10
  %8 = icmp ne ptr %7, null
  br i1 %8, label %9, label %19

9:                                                ; preds = %2
  call void @llvm.lifetime.start.p0(i64 8, ptr %5) #11
  %10 = getelementptr inbounds nuw %struct.ZSTD_customMem, ptr %1, i32 0, i32 0
  %11 = load ptr, ptr %10, align 8, !tbaa !10
  %12 = getelementptr inbounds nuw %struct.ZSTD_customMem, ptr %1, i32 0, i32 2
  %13 = load ptr, ptr %12, align 8, !tbaa !72
  %14 = load i64, ptr %4, align 8, !tbaa !45
  %15 = call ptr %11(ptr noundef %13, i64 noundef %14)
  store ptr %15, ptr %5, align 8, !tbaa !16
  %16 = load ptr, ptr %5, align 8, !tbaa !16
  %17 = load i64, ptr %4, align 8, !tbaa !45
  call void @llvm.memset.p0.i64(ptr align 1 %16, i8 0, i64 %17, i1 false)
  %18 = load ptr, ptr %5, align 8, !tbaa !16
  store ptr %18, ptr %3, align 8
  call void @llvm.lifetime.end.p0(i64 8, ptr %5) #11
  br label %22

19:                                               ; preds = %2
  %20 = load i64, ptr %4, align 8, !tbaa !45
  %21 = call noalias ptr @calloc(i64 noundef 1, i64 noundef %20) #14
  store ptr %21, ptr %3, align 8
  br label %22

22:                                               ; preds = %19, %9
  %23 = load ptr, ptr %3, align 8
  ret ptr %23
}

; Function Attrs: nounwind uwtable
define internal ptr @ZSTDMT_createCCtxPool(i32 noundef %0, ptr noundef byval(%struct.ZSTD_customMem) align 8 %1) #0 {
  %3 = alloca ptr, align 8
  %4 = alloca i32, align 4
  %5 = alloca ptr, align 8
  %6 = alloca i32, align 4
  store i32 %0, ptr %4, align 4, !tbaa !3
  call void @llvm.lifetime.start.p0(i64 8, ptr %5) #11
  %7 = call ptr @ZSTD_customCalloc(i64 noundef 80, ptr noundef byval(%struct.ZSTD_customMem) align 8 %1)
  store ptr %7, ptr %5, align 8, !tbaa !16
  %8 = load ptr, ptr %5, align 8, !tbaa !16
  %9 = icmp ne ptr %8, null
  br i1 %9, label %11, label %10

10:                                               ; preds = %2
  store ptr null, ptr %3, align 8
  store i32 1, ptr %6, align 4
  br label %57

11:                                               ; preds = %2
  %12 = load ptr, ptr %5, align 8, !tbaa !16
  %13 = getelementptr inbounds nuw %struct.ZSTDMT_CCtxPool, ptr %12, i32 0, i32 0
  %14 = call i32 @pthread_mutex_init(ptr noundef %13, ptr noundef null) #11
  %15 = icmp ne i32 %14, 0
  br i1 %15, label %16, label %18

16:                                               ; preds = %11
  %17 = load ptr, ptr %5, align 8, !tbaa !16
  call void @ZSTD_customFree(ptr noundef %17, ptr noundef byval(%struct.ZSTD_customMem) align 8 %1)
  store ptr null, ptr %3, align 8
  store i32 1, ptr %6, align 4
  br label %57

18:                                               ; preds = %11
  %19 = load i32, ptr %4, align 4, !tbaa !3
  %20 = load ptr, ptr %5, align 8, !tbaa !16
  %21 = getelementptr inbounds nuw %struct.ZSTDMT_CCtxPool, ptr %20, i32 0, i32 1
  store i32 %19, ptr %21, align 8, !tbaa !66
  %22 = load i32, ptr %4, align 4, !tbaa !3
  %23 = sext i32 %22 to i64
  %24 = mul i64 %23, 8
  %25 = call ptr @ZSTD_customCalloc(i64 noundef %24, ptr noundef byval(%struct.ZSTD_customMem) align 8 %1)
  %26 = load ptr, ptr %5, align 8, !tbaa !16
  %27 = getelementptr inbounds nuw %struct.ZSTDMT_CCtxPool, ptr %26, i32 0, i32 4
  store ptr %25, ptr %27, align 8, !tbaa !63
  %28 = load ptr, ptr %5, align 8, !tbaa !16
  %29 = getelementptr inbounds nuw %struct.ZSTDMT_CCtxPool, ptr %28, i32 0, i32 4
  %30 = load ptr, ptr %29, align 8, !tbaa !63
  %31 = icmp ne ptr %30, null
  br i1 %31, label %34, label %32

32:                                               ; preds = %18
  %33 = load ptr, ptr %5, align 8, !tbaa !16
  call void @ZSTDMT_freeCCtxPool(ptr noundef %33)
  store ptr null, ptr %3, align 8
  store i32 1, ptr %6, align 4
  br label %57

34:                                               ; preds = %18
  %35 = load ptr, ptr %5, align 8, !tbaa !16
  %36 = getelementptr inbounds nuw %struct.ZSTDMT_CCtxPool, ptr %35, i32 0, i32 3
  call void @llvm.memcpy.p0.p0.i64(ptr align 8 %36, ptr align 8 %1, i64 24, i1 false), !tbaa.struct !15
  %37 = call ptr @ZSTD_createCCtx_advanced(ptr noundef byval(%struct.ZSTD_customMem) align 8 %1)
  %38 = load ptr, ptr %5, align 8, !tbaa !16
  %39 = getelementptr inbounds nuw %struct.ZSTDMT_CCtxPool, ptr %38, i32 0, i32 4
  %40 = load ptr, ptr %39, align 8, !tbaa !63
  %41 = getelementptr inbounds ptr, ptr %40, i64 0
  store ptr %37, ptr %41, align 8, !tbaa !67
  %42 = load ptr, ptr %5, align 8, !tbaa !16
  %43 = getelementptr inbounds nuw %struct.ZSTDMT_CCtxPool, ptr %42, i32 0, i32 4
  %44 = load ptr, ptr %43, align 8, !tbaa !63
  %45 = getelementptr inbounds ptr, ptr %44, i64 0
  %46 = load ptr, ptr %45, align 8, !tbaa !67
  %47 = icmp ne ptr %46, null
  br i1 %47, label %50, label %48

48:                                               ; preds = %34
  %49 = load ptr, ptr %5, align 8, !tbaa !16
  call void @ZSTDMT_freeCCtxPool(ptr noundef %49)
  store ptr null, ptr %3, align 8
  store i32 1, ptr %6, align 4
  br label %57

50:                                               ; preds = %34
  %51 = load ptr, ptr %5, align 8, !tbaa !16
  %52 = getelementptr inbounds nuw %struct.ZSTDMT_CCtxPool, ptr %51, i32 0, i32 2
  store i32 1, ptr %52, align 4, !tbaa !176
  br label %53

53:                                               ; preds = %50
  br label %54

54:                                               ; preds = %53
  br label %55

55:                                               ; preds = %54
  %56 = load ptr, ptr %5, align 8, !tbaa !16
  store ptr %56, ptr %3, align 8
  store i32 1, ptr %6, align 4
  br label %57

57:                                               ; preds = %55, %48, %32, %16, %10
  call void @llvm.lifetime.end.p0(i64 8, ptr %5) #11
  %58 = load ptr, ptr %3, align 8
  ret ptr %58
}