; Function Attrs: nounwind uwtable
define internal fastcc noundef ptr @ZSTDMT_createCCtxPool(i32 noundef %0, ptr noundef readonly byval(%struct.ZSTD_customMem) align 8 captures(none) %1) unnamed_addr #0 {
  %.val20 = load ptr, ptr %1, align 8, !tbaa !7
  %3 = getelementptr inbounds nuw i8, ptr %1, i64 16
  %.val21 = load ptr, ptr %3, align 8
  %.not.i = icmp eq ptr %.val20, null
  br i1 %.not.i, label %ZSTD_customCalloc.exit, label %ZSTD_customCalloc.exit.thread

ZSTD_customCalloc.exit.thread:                    ; preds = %2
  %4 = tail call ptr %.val20(ptr noundef %.val21, i64 noundef 80) #14
  tail call void @llvm.memset.p0.i64(ptr noundef nonnull align 1 dereferenceable(80) %4, i8 0, i64 80, i1 false)
  br label %6

ZSTD_customCalloc.exit:                           ; preds = %2
  %5 = tail call noalias dereferenceable_or_null(80) ptr @calloc(i64 noundef 1, i64 noundef 80) #15
  %.not = icmp eq ptr %5, null
  br i1 %.not, label %ZSTD_customFree.exit, label %6

6:                                                ; preds = %ZSTD_customCalloc.exit.thread, %ZSTD_customCalloc.exit
  %.0.i30 = phi ptr [ %4, %ZSTD_customCalloc.exit.thread ], [ %5, %ZSTD_customCalloc.exit ]
  %7 = tail call i32 @pthread_mutex_init(ptr noundef nonnull %.0.i30, ptr noundef null) #14
  %.not16 = icmp eq i32 %7, 0
  br i1 %.not16, label %12, label %8

8:                                                ; preds = %6
  %9 = getelementptr inbounds nuw i8, ptr %1, i64 8
  %.val22 = load ptr, ptr %9, align 8
  %.not4.i = icmp eq ptr %.val22, null
  br i1 %.not4.i, label %11, label %10

10:                                               ; preds = %8
  tail call void %.val22(ptr noundef %.val21, ptr noundef nonnull %.0.i30) #14
  br label %ZSTD_customFree.exit

11:                                               ; preds = %8
  tail call void @free(ptr noundef nonnull %.0.i30) #14
  br label %ZSTD_customFree.exit

12:                                               ; preds = %6
  %13 = getelementptr inbounds nuw i8, ptr %.0.i30, i64 40
  store i32 %0, ptr %13, align 8, !tbaa !62
  %14 = sext i32 %0 to i64
  %15 = shl nsw i64 %14, 3
  br i1 %.not.i, label %18, label %16

16:                                               ; preds = %12
  %17 = tail call ptr %.val20(ptr noundef %.val21, i64 noundef range(i64 -17179869184, 1958505086521) %15) #14
  tail call void @llvm.memset.p0.i64(ptr align 1 %17, i8 0, i64 range(i64 -17179869184, 1958505086521) %15, i1 false)
  br label %ZSTD_customCalloc.exit27

18:                                               ; preds = %12
  %19 = tail call noalias ptr @calloc(i64 noundef 1, i64 noundef range(i64 -17179869184, 1958505086521) %15) #15
  br label %ZSTD_customCalloc.exit27

ZSTD_customCalloc.exit27:                         ; preds = %16, %18
  %.0.i26 = phi ptr [ %17, %16 ], [ %19, %18 ]
  %20 = getelementptr inbounds nuw i8, ptr %.0.i30, i64 72
  store ptr %.0.i26, ptr %20, align 8, !tbaa !59
  %.not17 = icmp eq ptr %.0.i26, null
  br i1 %.not17, label %21, label %22

21:                                               ; preds = %ZSTD_customCalloc.exit27
  tail call fastcc void @ZSTDMT_freeCCtxPool(ptr noundef nonnull %.0.i30)
  br label %ZSTD_customFree.exit

22:                                               ; preds = %ZSTD_customCalloc.exit27
  %23 = getelementptr inbounds nuw i8, ptr %.0.i30, i64 48
  call void @llvm.memcpy.p0.p0.i64(ptr noundef nonnull align 8 dereferenceable(24) %23, ptr noundef nonnull align 8 dereferenceable(24) %1, i64 24, i1 false), !tbaa.struct !11
  %24 = tail call ptr @ZSTD_createCCtx_advanced(ptr noundef nonnull byval(%struct.ZSTD_customMem) align 8 %1) #14
  %25 = load ptr, ptr %20, align 8, !tbaa !59
  store ptr %24, ptr %25, align 8, !tbaa !63
  %.not18 = icmp eq ptr %24, null
  br i1 %.not18, label %26, label %27

26:                                               ; preds = %22
  tail call fastcc void @ZSTDMT_freeCCtxPool(ptr noundef nonnull %.0.i30)
  br label %ZSTD_customFree.exit

27:                                               ; preds = %22
  %28 = getelementptr inbounds nuw i8, ptr %.0.i30, i64 44
  store i32 1, ptr %28, align 4, !tbaa !159
  br label %ZSTD_customFree.exit

ZSTD_customFree.exit:                             ; preds = %11, %10, %ZSTD_customCalloc.exit, %27, %26, %21
  %.0 = phi ptr [ %.0.i30, %27 ], [ null, %26 ], [ null, %21 ], [ null, %ZSTD_customCalloc.exit ], [ null, %10 ], [ null, %11 ]
  ret ptr %.0
}